; Function Attrs: nounwind uwtable
define dso_local ptr @source_file_text_load(ptr noundef %0, ptr noundef %1) local_unnamed_addr #1 {
  %3 = tail call ptr @calloc_arena(i64 noundef 48) #6
  %4 = load ptr, ptr getelementptr inbounds (%struct.GlobalContext, ptr @global_context, i64 0, i32 8), align 8
  %.not = icmp eq ptr %4, null
  br i1 %.not, label %9, label %5

5:                                                ; preds = %2
  %6 = getelementptr inbounds i8, ptr %4, i64 -8
  %7 = load i32, ptr %6, align 4
  %8 = trunc i32 %7 to i16
  br label %9

9:                                                ; preds = %2, %5
  %.0 = phi i16 [ %8, %5 ], [ 0, %2 ]
  store i16 %.0, ptr %3, align 8
  %10 = tail call i64 @strlen(ptr noundef nonnull dereferenceable(1) %0) #7
  %11 = tail call ptr @str_copy(ptr noundef %0, i64 noundef %10) #6
  %12 = getelementptr inbounds i8, ptr %3, i64 40
  store ptr %11, ptr %12, align 8
  %13 = getelementptr inbounds i8, ptr %3, i64 8
  store ptr %1, ptr %13, align 8
  %14 = tail call i64 @strlen(ptr noundef nonnull dereferenceable(1) %1) #7
  %15 = getelementptr inbounds i8, ptr %3, i64 16
  store i64 %14, ptr %15, align 8
  %16 = getelementptr inbounds i8, ptr %3, i64 24
  store ptr %11, ptr %16, align 8
  %17 = tail call ptr @str_copy(ptr noundef nonnull @.str, i64 noundef 0) #6
  %18 = getelementptr inbounds i8, ptr %3, i64 32
  store ptr %17, ptr %18, align 8
  %19 = load ptr, ptr getelementptr inbounds (%struct.GlobalContext, ptr @global_context, i64 0, i32 8), align 8
  %.not.i = icmp eq ptr %19, null
  br i1 %.not.i, label %20, label %23

20:                                               ; preds = %9
  %21 = tail call ptr @calloc_arena(i64 noundef 72) #6
  %22 = getelementptr inbounds i8, ptr %21, i64 4
  store i32 8, ptr %22, align 4
  br label %25

23:                                               ; preds = %9
  %24 = getelementptr inbounds i8, ptr %19, i64 -8
  %.phi.trans.insert.i = getelementptr inbounds i8, ptr %19, i64 -4
  %.pre.i = load i32, ptr %.phi.trans.insert.i, align 4
  br label %25

25:                                               ; preds = %23, %20
  %26 = phi i32 [ %.pre.i, %23 ], [ 8, %20 ]
  %.0.i = phi ptr [ %24, %23 ], [ %21, %20 ]
  %27 = load i32, ptr %.0.i, align 4
  %28 = icmp eq i32 %27, %26
  br i1 %28, label %29, label %43

29:                                               ; preds = %25
  %30 = getelementptr inbounds i8, ptr %.0.i, i64 4
  %31 = shl i32 %26, 1
  %32 = zext i32 %31 to i64
  %33 = shl nuw nsw i64 %32, 3
  %34 = or disjoint i64 %33, 8
  %35 = tail call ptr @calloc_arena(i64 noundef %34) #6
  %36 = getelementptr inbounds i8, ptr %35, i64 4
  store i32 %31, ptr %36, align 4
  %37 = load i32, ptr %30, align 4
  %38 = zext i32 %37 to i64
  %39 = shl nuw nsw i64 %38, 3
  %40 = add nuw nsw i64 %39, 8
  tail call void @llvm.memcpy.p0.p0.i64(ptr noundef nonnull align 4 dereferenceable(1) %35, ptr noundef nonnull align 4 dereferenceable(1) %.0.i, i64 %40, i1 false)
  %41 = load i32, ptr %36, align 4
  %42 = shl i32 %41, 1
  store i32 %42, ptr %36, align 4
  %.pre18.i = load i32, ptr %35, align 4
  br label %43

43:                                               ; preds = %25, %29
  %44 = phi i32 [ %.pre18.i, %29 ], [ %27, %25 ]
  %.1.i = phi ptr [ %35, %29 ], [ %.0.i, %25 ]
  %45 = add i32 %44, 1
  store i32 %45, ptr %.1.i, align 4
  %46 = getelementptr inbounds i8, ptr %.1.i, i64 8
  store ptr %46, ptr getelementptr inbounds (%struct.GlobalContext, ptr @global_context, i64 0, i32 8), align 8
  %47 = load i32, ptr %.1.i, align 4
  %48 = add i32 %47, -1
  %49 = zext i32 %48 to i64
  %50 = getelementptr inbounds ptr, ptr %46, i64 %49
  store ptr %3, ptr %50, align 8
  ret ptr %3
}